target datalayout = "e-m:e-p270:32:32-p271:32:32-p272:64:64-i64:64-i128:128-f80:128-n8:16:32:64-S128"
target triple = "x86_64-pc-linux-gnu"

; Function Attrs: nounwind uwtable
define internal ptr @build_ustar_entry_name(ptr noundef %0, ptr noundef %1, i64 noundef %2, ptr noundef %3) #0 {
  %5 = alloca ptr, align 8
  %6 = alloca ptr, align 8
  %7 = alloca ptr, align 8
  %8 = alloca i64, align 8
  %9 = alloca ptr, align 8
  %10 = alloca ptr, align 8
  %11 = alloca ptr, align 8
  %12 = alloca ptr, align 8
  %13 = alloca ptr, align 8
  %14 = alloca ptr, align 8
  %15 = alloca ptr, align 8
  %16 = alloca ptr, align 8
  %17 = alloca i32, align 4
  %18 = alloca i64, align 8
  %19 = alloca i64, align 8
  store ptr %0, ptr %6, align 8
  store ptr %1, ptr %7, align 8
  store i64 %2, ptr %8, align 8
  store ptr %3, ptr %9, align 8
  store i32 0, ptr %17, align 4
  store i64 99, ptr %18, align 8
  %20 = load ptr, ptr %9, align 8
  %21 = icmp eq ptr %20, null
  br i1 %21, label %22, label %23

22:                                               ; preds = %4
  store i64 0, ptr %19, align 8
  br label %27

23:                                               ; preds = %4
  %24 = load ptr, ptr %9, align 8
  %25 = call i64 @strlen(ptr noundef %24) #9
  %26 = add i64 %25, 2
  store i64 %26, ptr %19, align 8
  br label %27

27:                                               ; preds = %23, %22
  %28 = load i64, ptr %8, align 8
  %29 = icmp ult i64 %28, 100
  br i1 %29, label %30, label %42

30:                                               ; preds = %27
  %31 = load ptr, ptr %9, align 8
  %32 = icmp eq ptr %31, null
  br i1 %32, label %33, label %42

33:                                               ; preds = %30
  %34 = load ptr, ptr %6, align 8
  %35 = load ptr, ptr %7, align 8
  %36 = load i64, ptr %8, align 8
  %37 = call ptr @strncpy(ptr noundef %34, ptr noundef %35, i64 noundef %36) #11
  %38 = load ptr, ptr %6, align 8
  %39 = load i64, ptr %8, align 8
  %40 = getelementptr inbounds i8, ptr %38, i64 %39
  store i8 0, ptr %40, align 1
  %41 = load ptr, ptr %6, align 8
  store ptr %41, ptr %5, align 8
  br label %293

42:                                               ; preds = %30, %27
  %43 = load ptr, ptr %7, align 8
  %44 = load i64, ptr %8, align 8
  %45 = getelementptr inbounds i8, ptr %43, i64 %44
  store ptr %45, ptr %15, align 8
  br label %46

46:                                               ; preds = %76, %56, %42
  %47 = load ptr, ptr %15, align 8
  %48 = load ptr, ptr %7, align 8
  %49 = icmp ugt ptr %47, %48
  br i1 %49, label %50, label %59

50:                                               ; preds = %46
  %51 = load ptr, ptr %15, align 8
  %52 = getelementptr inbounds i8, ptr %51, i64 -1
  %53 = load i8, ptr %52, align 1
  %54 = sext i8 %53 to i32
  %55 = icmp eq i32 %54, 47
  br i1 %55, label %56, label %59

56:                                               ; preds = %50
  %57 = load ptr, ptr %15, align 8
  %58 = getelementptr inbounds i8, ptr %57, i32 -1
  store ptr %58, ptr %15, align 8
  store i32 1, ptr %17, align 4
  br label %46

59:                                               ; preds = %50, %46
  %60 = load ptr, ptr %15, align 8
  %61 = load ptr, ptr %7, align 8
  %62 = getelementptr inbounds i8, ptr %61, i64 1
  %63 = icmp ugt ptr %60, %62
  br i1 %63, label %64, label %79

64:                                               ; preds = %59
  %65 = load ptr, ptr %15, align 8
  %66 = getelementptr inbounds i8, ptr %65, i64 -1
  %67 = load i8, ptr %66, align 1
  %68 = sext i8 %67 to i32
  %69 = icmp eq i32 %68, 46
  br i1 %69, label %70, label %79

70:                                               ; preds = %64
  %71 = load ptr, ptr %15, align 8
  %72 = getelementptr inbounds i8, ptr %71, i64 -2
  %73 = load i8, ptr %72, align 1
  %74 = sext i8 %73 to i32
  %75 = icmp eq i32 %74, 47
  br i1 %75, label %76, label %79

76:                                               ; preds = %70
  %77 = load ptr, ptr %15, align 8
  %78 = getelementptr inbounds i8, ptr %77, i64 -2
  store ptr %78, ptr %15, align 8
  store i32 1, ptr %17, align 4
  br label %46

79:                                               ; preds = %70, %64, %59
  br label %80

80:                                               ; preds = %79
  %81 = load i32, ptr %17, align 4
  %82 = icmp ne i32 %81, 0
  br i1 %82, label %83, label %86

83:                                               ; preds = %80
  %84 = load i64, ptr %18, align 8
  %85 = add i64 %84, -1
  store i64 %85, ptr %18, align 8
  br label %86

86:                                               ; preds = %83, %80
  %87 = load ptr, ptr %15, align 8
  %88 = getelementptr inbounds i8, ptr %87, i64 -1
  store ptr %88, ptr %14, align 8
  br label %89

89:                                               ; preds = %100, %86
  %90 = load ptr, ptr %14, align 8
  %91 = load ptr, ptr %7, align 8
  %92 = icmp ugt ptr %90, %91
  br i1 %92, label %93, label %98

93:                                               ; preds = %89
  %94 = load ptr, ptr %14, align 8
  %95 = load i8, ptr %94, align 1
  %96 = sext i8 %95 to i32
  %97 = icmp ne i32 %96, 47
  br label %98

98:                                               ; preds = %93, %89
  %99 = phi i1 [ false, %89 ], [ %97, %93 ]
  br i1 %99, label %100, label %103

100:                                              ; preds = %98
  %101 = load ptr, ptr %14, align 8
  %102 = getelementptr inbounds i8, ptr %101, i32 -1
  store ptr %102, ptr %14, align 8
  br label %89, !llvm.loop !14

103:                                              ; preds = %98
  %104 = load ptr, ptr %14, align 8
  %105 = load i8, ptr %104, align 1
  %106 = sext i8 %105 to i32
  %107 = icmp eq i32 %106, 47
  br i1 %107, label %108, label %116

108:                                              ; preds = %103
  %109 = load ptr, ptr %14, align 8
  %110 = load ptr, ptr %15, align 8
  %111 = getelementptr inbounds i8, ptr %110, i64 -1
  %112 = icmp ult ptr %109, %111
  br i1 %112, label %113, label %116

113:                                              ; preds = %108
  %114 = load ptr, ptr %14, align 8
  %115 = getelementptr inbounds i8, ptr %114, i32 1
  store ptr %115, ptr %14, align 8
  br label %116

116:                                              ; preds = %113, %108, %103
  %117 = load i64, ptr %19, align 8
  %118 = load i64, ptr %18, align 8
  %119 = sub i64 %118, %117
  store i64 %119, ptr %18, align 8
  %120 = load ptr, ptr %15, align 8
  %121 = load ptr, ptr %14, align 8
  %122 = load i64, ptr %18, align 8
  %123 = getelementptr inbounds i8, ptr %121, i64 %122
  %124 = icmp ugt ptr %120, %123
  br i1 %124, label %125, label %129

125:                                              ; preds = %116
  %126 = load ptr, ptr %14, align 8
  %127 = load i64, ptr %18, align 8
  %128 = getelementptr inbounds i8, ptr %126, i64 %127
  store ptr %128, ptr %15, align 8
  br label %129

129:                                              ; preds = %125, %116
  %130 = load ptr, ptr %15, align 8
  %131 = load ptr, ptr %14, align 8
  %132 = ptrtoint ptr %130 to i64
  %133 = ptrtoint ptr %131 to i64
  %134 = sub i64 %132, %133
  %135 = load i64, ptr %18, align 8
  %136 = sub i64 %135, %134
  store i64 %136, ptr %18, align 8
  %137 = load ptr, ptr %7, align 8
  store ptr %137, ptr %10, align 8
  %138 = load ptr, ptr %10, align 8
  %139 = getelementptr inbounds i8, ptr %138, i64 155
  store ptr %139, ptr %11, align 8
  %140 = load ptr, ptr %11, align 8
  %141 = load ptr, ptr %14, align 8
  %142 = icmp ugt ptr %140, %141
  br i1 %142, label %143, label %145

143:                                              ; preds = %129
  %144 = load ptr, ptr %14, align 8
  store ptr %144, ptr %11, align 8
  br label %145

145:                                              ; preds = %143, %129
  br label %146

146:                                              ; preds = %157, %145
  %147 = load ptr, ptr %11, align 8
  %148 = load ptr, ptr %10, align 8
  %149 = icmp ugt ptr %147, %148
  br i1 %149, label %150, label %155

150:                                              ; preds = %146
  %151 = load ptr, ptr %11, align 8
  %152 = load i8, ptr %151, align 1
  %153 = sext i8 %152 to i32
  %154 = icmp ne i32 %153, 47
  br label %155

155:                                              ; preds = %150, %146
  %156 = phi i1 [ false, %146 ], [ %154, %150 ]
  br i1 %156, label %157, label %160

157:                                              ; preds = %155
  %158 = load ptr, ptr %11, align 8
  %159 = getelementptr inbounds i8, ptr %158, i32 -1
  store ptr %159, ptr %11, align 8
  br label %146, !llvm.loop !15

160:                                              ; preds = %155
  %161 = load ptr, ptr %11, align 8
  %162 = load ptr, ptr %14, align 8
  %163 = icmp ult ptr %161, %162
  br i1 %163, label %164, label %172

164:                                              ; preds = %160
  %165 = load ptr, ptr %11, align 8
  %166 = load i8, ptr %165, align 1
  %167 = sext i8 %166 to i32
  %168 = icmp eq i32 %167, 47
  br i1 %168, label %169, label %172

169:                                              ; preds = %164
  %170 = load ptr, ptr %11, align 8
  %171 = getelementptr inbounds i8, ptr %170, i32 1
  store ptr %171, ptr %11, align 8
  br label %172

172:                                              ; preds = %169, %164, %160
  %173 = load ptr, ptr %11, align 8
  store ptr %173, ptr %12, align 8
  %174 = load ptr, ptr %12, align 8
  %175 = load i64, ptr %18, align 8
  %176 = getelementptr inbounds i8, ptr %174, i64 %175
  store ptr %176, ptr %13, align 8
  %177 = load ptr, ptr %13, align 8
  %178 = load ptr, ptr %14, align 8
  %179 = icmp ugt ptr %177, %178
  br i1 %179, label %180, label %182

180:                                              ; preds = %172
  %181 = load ptr, ptr %14, align 8
  store ptr %181, ptr %13, align 8
  br label %182

182:                                              ; preds = %180, %172
  %183 = load ptr, ptr %13, align 8
  %184 = load ptr, ptr %12, align 8
  %185 = icmp ult ptr %183, %184
  br i1 %185, label %186, label %188

186:                                              ; preds = %182
  %187 = load ptr, ptr %12, align 8
  store ptr %187, ptr %13, align 8
  br label %188

188:                                              ; preds = %186, %182
  br label %189

189:                                              ; preds = %200, %188
  %190 = load ptr, ptr %13, align 8
  %191 = load ptr, ptr %12, align 8
  %192 = icmp ugt ptr %190, %191
  br i1 %192, label %193, label %198

193:                                              ; preds = %189
  %194 = load ptr, ptr %13, align 8
  %195 = load i8, ptr %194, align 1
  %196 = sext i8 %195 to i32
  %197 = icmp ne i32 %196, 47
  br label %198

198:                                              ; preds = %193, %189
  %199 = phi i1 [ false, %189 ], [ %197, %193 ]
  br i1 %199, label %200, label %203

200:                                              ; preds = %198
  %201 = load ptr, ptr %13, align 8
  %202 = getelementptr inbounds i8, ptr %201, i32 -1
  store ptr %202, ptr %13, align 8
  br label %189, !llvm.loop !16

203:                                              ; preds = %198
  %204 = load ptr, ptr %13, align 8
  %205 = load ptr, ptr %14, align 8
  %206 = icmp ult ptr %204, %205
  br i1 %206, label %207, label %215

207:                                              ; preds = %203
  %208 = load ptr, ptr %13, align 8
  %209 = load i8, ptr %208, align 1
  %210 = sext i8 %209 to i32
  %211 = icmp eq i32 %210, 47
  br i1 %211, label %212, label %215

212:                                              ; preds = %207
  %213 = load ptr, ptr %13, align 8
  %214 = getelementptr inbounds i8, ptr %213, i32 1
  store ptr %214, ptr %13, align 8
  br label %215

215:                                              ; preds = %212, %207, %203
  %216 = load ptr, ptr %6, align 8
  store ptr %216, ptr %16, align 8
  %217 = load ptr, ptr %11, align 8
  %218 = load ptr, ptr %10, align 8
  %219 = icmp ugt ptr %217, %218
  br i1 %219, label %220, label %236

220:                                              ; preds = %215
  %221 = load ptr, ptr %16, align 8
  %222 = load ptr, ptr %10, align 8
  %223 = load ptr, ptr %11, align 8
  %224 = load ptr, ptr %10, align 8
  %225 = ptrtoint ptr %223 to i64
  %226 = ptrtoint ptr %224 to i64
  %227 = sub i64 %225, %226
  %228 = call ptr @strncpy(ptr noundef %221, ptr noundef %222, i64 noundef %227) #11
  %229 = load ptr, ptr %11, align 8
  %230 = load ptr, ptr %10, align 8
  %231 = ptrtoint ptr %229 to i64
  %232 = ptrtoint ptr %230 to i64
  %233 = sub i64 %231, %232
  %234 = load ptr, ptr %16, align 8
  %235 = getelementptr inbounds i8, ptr %234, i64 %233
  store ptr %235, ptr %16, align 8
  br label %236

236:                                              ; preds = %220, %215
  %237 = load ptr, ptr %13, align 8
  %238 = load ptr, ptr %12, align 8
  %239 = icmp ugt ptr %237, %238
  br i1 %239, label %240, label %256

240:                                              ; preds = %236
  %241 = load ptr, ptr %16, align 8
  %242 = load ptr, ptr %12, align 8
  %243 = load ptr, ptr %13, align 8
  %244 = load ptr, ptr %12, align 8
  %245 = ptrtoint ptr %243 to i64
  %246 = ptrtoint ptr %244 to i64
  %247 = sub i64 %245, %246
  %248 = call ptr @strncpy(ptr noundef %241, ptr noundef %242, i64 noundef %247) #11
  %249 = load ptr, ptr %13, align 8
  %250 = load ptr, ptr %12, align 8
  %251 = ptrtoint ptr %249 to i64
  %252 = ptrtoint ptr %250 to i64
  %253 = sub i64 %251, %252
  %254 = load ptr, ptr %16, align 8
  %255 = getelementptr inbounds i8, ptr %254, i64 %253
  store ptr %255, ptr %16, align 8
  br label %256

256:                                              ; preds = %240, %236
  %257 = load ptr, ptr %9, align 8
  %258 = icmp ne ptr %257, null
  br i1 %258, label %259, label %269

259:                                              ; preds = %256
  %260 = load ptr, ptr %16, align 8
  %261 = load ptr, ptr %9, align 8
  %262 = call ptr @strcpy(ptr noundef %260, ptr noundef %261) #11
  %263 = load ptr, ptr %9, align 8
  %264 = call i64 @strlen(ptr noundef %263) #9
  %265 = load ptr, ptr %16, align 8
  %266 = getelementptr inbounds i8, ptr %265, i64 %264
  store ptr %266, ptr %16, align 8
  %267 = load ptr, ptr %16, align 8
  %268 = getelementptr inbounds i8, ptr %267, i32 1
  store ptr %268, ptr %16, align 8
  store i8 47, ptr %267, align 1
  br label %269

269:                                              ; preds = %259, %256
  %270 = load ptr, ptr %16, align 8
  %271 = load ptr, ptr %14, align 8
  %272 = load ptr, ptr %15, align 8
  %273 = load ptr, ptr %14, align 8
  %274 = ptrtoint ptr %272 to i64
  %275 = ptrtoint ptr %273 to i64
  %276 = sub i64 %274, %275
  %277 = call ptr @strncpy(ptr noundef %270, ptr noundef %271, i64 noundef %276) #11
  %278 = load ptr, ptr %15, align 8
  %279 = load ptr, ptr %14, align 8
  %280 = ptrtoint ptr %278 to i64
  %281 = ptrtoint ptr %279 to i64
  %282 = sub i64 %280, %281
  %283 = load ptr, ptr %16, align 8
  %284 = getelementptr inbounds i8, ptr %283, i64 %282
  store ptr %284, ptr %16, align 8
  %285 = load i32, ptr %17, align 4
  %286 = icmp ne i32 %285, 0
  br i1 %286, label %287, label %290

287:                                              ; preds = %269
  %288 = load ptr, ptr %16, align 8
  %289 = getelementptr inbounds i8, ptr %288, i32 1
  store ptr %289, ptr %16, align 8
  store i8 47, ptr %288, align 1
  br label %290

290:                                              ; preds = %287, %269
  %291 = load ptr, ptr %16, align 8
  store i8 0, ptr %291, align 1
  %292 = load ptr, ptr %6, align 8
  store ptr %292, ptr %5, align 8
  br label %293

293:                                              ; preds = %290, %33
  %294 = load ptr, ptr %5, align 8
  ret ptr %294
}