; Function Attrs: nofree nounwind memory(read, argmem: readwrite, inaccessiblemem: none) uwtable
define internal fastcc noundef nonnull ptr @build_ustar_entry_name(ptr noundef nonnull returned %0, ptr noundef %1, i64 noundef %2, ptr noundef readonly %3) unnamed_addr #8 {
  %5 = icmp eq ptr %3, null
  br i1 %5, label %8, label %.thread193

.thread193:                                       ; preds = %4
  %6 = tail call i64 @strlen(ptr noundef nonnull dereferenceable(1) %3) #17
  %7 = add i64 %6, 2
  br label %.preheader

8:                                                ; preds = %4
  %9 = icmp ult i64 %2, 100
  br i1 %9, label %11, label %.preheader

.preheader:                                       ; preds = %.thread193, %8
  %.0196 = phi i64 [ %7, %.thread193 ], [ 0, %8 ]
  %.0116.ptr.ptr152 = getelementptr inbounds i8, ptr %1, i64 %2
  %10 = icmp slt i64 %2, 1
  br i1 %10, label %.thread210, label %.lr.ph

11:                                               ; preds = %8
  %12 = tail call ptr @strncpy(ptr noundef nonnull %0, ptr noundef %1, i64 noundef %2) #15
  %13 = getelementptr inbounds nuw i8, ptr %0, i64 %2
  store i8 0, ptr %13, align 1
  br label %91

.lr.ph:                                           ; preds = %.preheader, %.backedge
  %.0116.ptr.ptr155 = phi ptr [ %.0116.ptr.ptr, %.backedge ], [ %.0116.ptr.ptr152, %.preheader ]
  %.not154 = phi i1 [ false, %.backedge ], [ true, %.preheader ]
  %.0116.idx153 = phi i64 [ %.0116.idx.be, %.backedge ], [ %2, %.preheader ]
  %.0116.add135 = add nsw i64 %.0116.idx153, -1
  %.ptr136 = getelementptr inbounds i8, ptr %1, i64 %.0116.add135
  %14 = load i8, ptr %.ptr136, align 1
  %15 = icmp eq i8 %14, 47
  br i1 %15, label %.backedge, label %17

.backedge:                                        ; preds = %.lr.ph, %22
  %.0116.idx.be = phi i64 [ %.0116.add135, %.lr.ph ], [ %.0116.add, %22 ]
  %.0116.ptr.ptr = getelementptr inbounds i8, ptr %1, i64 %.0116.idx.be
  %16 = icmp sgt i64 %.0116.idx.be, 0
  br i1 %16, label %.lr.ph, label %.thread210

17:                                               ; preds = %.lr.ph
  %.not150 = icmp eq i64 %.0116.idx153, 1
  br i1 %.not150, label %.thread, label %18

18:                                               ; preds = %17
  %19 = getelementptr inbounds i8, ptr %.0116.ptr.ptr155, i64 -1
  %20 = load i8, ptr %19, align 1
  %21 = icmp eq i8 %20, 46
  br i1 %21, label %22, label %.thread

22:                                               ; preds = %18
  %.0116.add = add nsw i64 %.0116.idx153, -2
  %.ptr = getelementptr inbounds i8, ptr %1, i64 %.0116.add
  %23 = load i8, ptr %.ptr, align 1
  %24 = icmp eq i8 %23, 47
  br i1 %24, label %.backedge, label %.thread

.thread:                                          ; preds = %22, %18, %17
  %spec.select221 = select i1 %.not154, i64 99, i64 98
  %.0116.ptr.add170 = add nsw i64 %.0116.idx153, -1
  %.0118.ptr.ptr171 = getelementptr inbounds i8, ptr %1, i64 %.0116.ptr.add170
  %25 = icmp samesign ugt i64 %.0116.idx153, 1
  br i1 %25, label %.lr.ph175.preheader, label %.critedge

.thread210:                                       ; preds = %.backedge, %.preheader
  %.0116.ptr.ptr.lcssa204.ph = phi ptr [ %.0116.ptr.ptr152, %.preheader ], [ %.0116.ptr.ptr, %.backedge ]
  %.0116.idx.lcssa200.ph = phi i64 [ %2, %.preheader ], [ %.0116.idx.be, %.backedge ]
  %.ph = phi i64 [ 99, %.preheader ], [ 98, %.backedge ]
  %.0116.ptr.add170214 = add nsw i64 %.0116.idx.lcssa200.ph, -1
  %.0118.ptr.ptr171215 = getelementptr inbounds i8, ptr %1, i64 %.0116.ptr.add170214
  br label %.critedge

.lr.ph175.preheader:                              ; preds = %.thread
  %invariant.op = add nsw i64 %.0116.idx153, -1
  %26 = load i8, ptr %.0118.ptr.ptr171, align 1
  %.not138225.not = icmp eq i8 %26, 47
  br i1 %.not138225.not, label %.critedge, label %.lr.ph227

.lr.ph175:                                        ; preds = %.lr.ph227
  %.0118.add = add nsw i64 %.0118.idx172226, -1
  %.0118.ptr.ptr = getelementptr inbounds nuw i8, ptr %1, i64 %.0116.ptr.add.reass
  %27 = load i8, ptr %.0118.ptr.ptr, align 1
  %.not138 = icmp eq i8 %27, 47
  br i1 %.not138, label %.critedge.loopexit.split.loop.exit, label %.lr.ph227, !llvm.loop !14

.lr.ph227:                                        ; preds = %.lr.ph175.preheader, %.lr.ph175
  %.0118.idx172226 = phi i64 [ %.0118.add, %.lr.ph175 ], [ -1, %.lr.ph175.preheader ]
  %.0116.ptr.add.reass = add i64 %.0118.idx172226, %invariant.op
  %28 = icmp sgt i64 %.0116.ptr.add.reass, 0
  br i1 %28, label %.lr.ph175, label %.critedge, !llvm.loop !14

.critedge.loopexit.split.loop.exit:               ; preds = %.lr.ph175
  %.0118.ptr.ptr.le = getelementptr inbounds nuw i8, ptr %1, i64 %.0116.ptr.add.reass
  br label %.critedge

.critedge:                                        ; preds = %.critedge.loopexit.split.loop.exit, %.lr.ph227, %.lr.ph175.preheader, %.thread210, %.thread
  %29 = phi i64 [ %spec.select221, %.thread ], [ %.ph, %.thread210 ], [ %spec.select221, %.lr.ph175.preheader ], [ %spec.select221, %.lr.ph227 ], [ %spec.select221, %.critedge.loopexit.split.loop.exit ]
  %.not.lcssa202217 = phi i1 [ %.not154, %.thread ], [ %10, %.thread210 ], [ %.not154, %.lr.ph175.preheader ], [ %.not154, %.lr.ph227 ], [ %.not154, %.critedge.loopexit.split.loop.exit ]
  %.0116.ptr.ptr.lcssa204216 = phi ptr [ %.0116.ptr.ptr155, %.thread ], [ %.0116.ptr.ptr.lcssa204.ph, %.thread210 ], [ %.0116.ptr.ptr155, %.lr.ph175.preheader ], [ %.0116.ptr.ptr155, %.lr.ph227 ], [ %.0116.ptr.ptr155, %.critedge.loopexit.split.loop.exit ]
  %.0118.idx.lcssa = phi i1 [ false, %.thread ], [ false, %.thread210 ], [ false, %.lr.ph175.preheader ], [ true, %.lr.ph227 ], [ true, %.critedge.loopexit.split.loop.exit ]
  %.0116.ptr.add.lcssa = phi i64 [ 0, %.thread ], [ %.0116.ptr.add170214, %.thread210 ], [ %.0116.ptr.add170, %.lr.ph175.preheader ], [ %.0116.ptr.add.reass, %.critedge.loopexit.split.loop.exit ], [ 0, %.lr.ph227 ]
  %.0118.ptr.ptr.lcssa = phi ptr [ %.0118.ptr.ptr171, %.thread ], [ %.0118.ptr.ptr171215, %.thread210 ], [ %.0118.ptr.ptr171, %.lr.ph175.preheader ], [ %.0118.ptr.ptr.le, %.critedge.loopexit.split.loop.exit ], [ %1, %.lr.ph227 ]
  %30 = load i8, ptr %.0118.ptr.ptr.lcssa, align 1
  %31 = icmp eq i8 %30, 47
  %or.cond146.not = and i1 %.0118.idx.lcssa, %31
  %.0118.ptr.add = zext i1 %or.cond146.not to i64
  %.1119.idx = add nsw i64 %.0116.ptr.add.lcssa, %.0118.ptr.add
  %.1119.ptr = getelementptr inbounds i8, ptr %1, i64 %.1119.idx
  %32 = sub i64 %29, %.0196
  %33 = getelementptr inbounds i8, ptr %.1119.ptr, i64 %32
  %34 = icmp ugt ptr %.0116.ptr.ptr.lcssa204216, %33
  %.1117 = select i1 %34, ptr %33, ptr %.0116.ptr.ptr.lcssa204216
  %35 = ptrtoint ptr %.1117 to i64
  %36 = ptrtoint ptr %.1119.ptr to i64
  %37 = sub i64 %35, %36
  %38 = sub i64 %32, %37
  %39 = getelementptr inbounds nuw i8, ptr %1, i64 155
  %40 = icmp slt i64 %.1119.idx, 155
  %.0125 = select i1 %40, ptr %.1119.ptr, ptr %39
  %41 = icmp ugt ptr %.0125, %1
  br i1 %41, label %.lr.ph184, label %.critedge3

.lr.ph184:                                        ; preds = %.critedge, %43
  %.1126183 = phi ptr [ %44, %43 ], [ %.0125, %.critedge ]
  %42 = load i8, ptr %.1126183, align 1
  %.not143 = icmp eq i8 %42, 47
  br i1 %.not143, label %.critedge3, label %43

43:                                               ; preds = %.lr.ph184
  %44 = getelementptr inbounds i8, ptr %.1126183, i64 -1
  %45 = icmp ugt ptr %44, %1
  br i1 %45, label %.lr.ph184, label %.critedge3, !llvm.loop !15

.critedge3:                                       ; preds = %.lr.ph184, %43, %.critedge
  %.1126.lcssa = phi ptr [ %.0125, %.critedge ], [ %1, %43 ], [ %.1126183, %.lr.ph184 ]
  %46 = icmp ult ptr %.1126.lcssa, %.1119.ptr
  br i1 %46, label %47, label %50

47:                                               ; preds = %.critedge3
  %48 = load i8, ptr %.1126.lcssa, align 1
  %49 = icmp eq i8 %48, 47
  %spec.select147.idx = zext i1 %49 to i64
  %spec.select147 = getelementptr inbounds nuw i8, ptr %.1126.lcssa, i64 %spec.select147.idx
  br label %50

50:                                               ; preds = %47, %.critedge3
  %.2127 = phi ptr [ %.1126.lcssa, %.critedge3 ], [ %spec.select147, %47 ]
  %51 = getelementptr inbounds i8, ptr %.2127, i64 %38
  %52 = icmp ugt ptr %51, %.1119.ptr
  %spec.select148 = select i1 %52, ptr %.1119.ptr, ptr %51
  %53 = icmp ult ptr %spec.select148, %.2127
  %.1121 = select i1 %53, ptr %.2127, ptr %spec.select148
  %54 = icmp ugt ptr %.1121, %.2127
  br i1 %54, label %.lr.ph189, label %.critedge5

.lr.ph189:                                        ; preds = %50, %56
  %.2122188 = phi ptr [ %57, %56 ], [ %.1121, %50 ]
  %55 = load i8, ptr %.2122188, align 1
  %.not144 = icmp eq i8 %55, 47
  br i1 %.not144, label %.critedge5, label %56

56:                                               ; preds = %.lr.ph189
  %57 = getelementptr inbounds i8, ptr %.2122188, i64 -1
  %58 = icmp ugt ptr %57, %.2127
  br i1 %58, label %.lr.ph189, label %.critedge5, !llvm.loop !16

.critedge5:                                       ; preds = %.lr.ph189, %56, %50
  %.2122.lcssa = phi ptr [ %.1121, %50 ], [ %57, %56 ], [ %.2122188, %.lr.ph189 ]
  %59 = icmp ult ptr %.2122.lcssa, %.1119.ptr
  br i1 %59, label %60, label %63

60:                                               ; preds = %.critedge5
  %61 = load i8, ptr %.2122.lcssa, align 1
  %62 = icmp eq i8 %61, 47
  %spec.select149.idx = zext i1 %62 to i64
  %spec.select149 = getelementptr inbounds nuw i8, ptr %.2122.lcssa, i64 %spec.select149.idx
  br label %63

63:                                               ; preds = %60, %.critedge5
  %.3123 = phi ptr [ %.2122.lcssa, %.critedge5 ], [ %spec.select149, %60 ]
  %64 = icmp ugt ptr %.2127, %1
  br i1 %64, label %65, label %71

65:                                               ; preds = %63
  %66 = ptrtoint ptr %.2127 to i64
  %67 = ptrtoint ptr %1 to i64
  %68 = sub i64 %66, %67
  %69 = tail call ptr @strncpy(ptr noundef nonnull %0, ptr noundef %1, i64 noundef %68) #15
  %70 = getelementptr inbounds i8, ptr %0, i64 %68
  br label %71

71:                                               ; preds = %65, %63
  %.0115 = phi ptr [ %70, %65 ], [ %0, %63 ]
  %72 = icmp ugt ptr %.3123, %.2127
  br i1 %72, label %73, label %79

73:                                               ; preds = %71
  %74 = ptrtoint ptr %.3123 to i64
  %75 = ptrtoint ptr %.2127 to i64
  %76 = sub i64 %74, %75
  %77 = tail call ptr @strncpy(ptr noundef %.0115, ptr noundef %.2127, i64 noundef %76) #15
  %78 = getelementptr inbounds i8, ptr %.0115, i64 %76
  br label %79

79:                                               ; preds = %73, %71
  %.1 = phi ptr [ %78, %73 ], [ %.0115, %71 ]
  br i1 %5, label %85, label %80

80:                                               ; preds = %79
  %81 = tail call ptr @strcpy(ptr noundef nonnull dereferenceable(1) %.1, ptr noundef nonnull dereferenceable(1) %3) #15
  %82 = tail call i64 @strlen(ptr noundef nonnull dereferenceable(1) %3) #17
  %83 = getelementptr inbounds i8, ptr %.1, i64 %82
  %84 = getelementptr inbounds nuw i8, ptr %83, i64 1
  store i8 47, ptr %83, align 1
  br label %85

85:                                               ; preds = %80, %79
  %.2 = phi ptr [ %84, %80 ], [ %.1, %79 ]
  %86 = tail call ptr @strncpy(ptr noundef %.2, ptr noundef %.1119.ptr, i64 noundef %37) #15
  %87 = getelementptr inbounds i8, ptr %.2, i64 %37
  br i1 %.not.lcssa202217, label %90, label %88

88:                                               ; preds = %85
  %89 = getelementptr inbounds nuw i8, ptr %87, i64 1
  store i8 47, ptr %87, align 1
  br label %90

90:                                               ; preds = %88, %85
  %.3 = phi ptr [ %89, %88 ], [ %87, %85 ]
  store i8 0, ptr %.3, align 1
  br label %91

91:                                               ; preds = %90, %11
  ret ptr %0
}